; Function Attrs: mustprogress uwtable
define hidden void @_ZNK5osgeo4proj3crs11GeodeticCRS13_shallowCloneEv(ptr dead_on_unwind noalias nocapture writable writeonly sret(%"class.dropbox::oxygen::nn.96") align 8 %0, ptr noundef nonnull align 8 dereferenceable(16) %1) unnamed_addr #6 align 2 personality ptr @__gxx_personality_v0 {
  %3 = alloca %"class.dropbox::oxygen::nn.245", align 8
  %4 = alloca %"struct.osgeo::proj::util::BaseObjectNNPtr", align 8
  call void @_ZN5osgeo4proj3crs11GeodeticCRS14nn_make_sharedIS2_JRKS2_EEEN7dropbox6oxygen2nnISt10shared_ptrIT_EEEDpOT0_(ptr dead_on_unwind nonnull writable sret(%"class.dropbox::oxygen::nn.245") align 8 %3, ptr noundef nonnull align 8 dereferenceable(16) %1)
  %5 = load ptr, ptr %3, align 8
  %6 = load ptr, ptr %5, align 8
  %7 = getelementptr i8, ptr %6, i64 -24
  %8 = load i64, ptr %7, align 8
  %9 = getelementptr inbounds i8, ptr %5, i64 %8
  store ptr %9, ptr %4, align 8
  %10 = getelementptr inbounds i8, ptr %4, i64 8
  %11 = getelementptr inbounds i8, ptr %3, i64 8
  %12 = load ptr, ptr %11, align 8
  store ptr %12, ptr %10, align 8
  %.not.i.i.i.i.i = icmp eq ptr %12, null
  br i1 %.not.i.i.i.i.i, label %_ZN5osgeo4proj4util15BaseObjectNNPtrC2INS0_3crs11GeodeticCRSEEERKN7dropbox6oxygen2nnISt10shared_ptrIT_EEE.exit, label %13

13:                                               ; preds = %2
  %14 = getelementptr inbounds i8, ptr %12, i64 8
  %15 = load i8, ptr @__libc_single_threaded, align 1
  %.not.i.i.i.i.i.i = icmp eq i8 %15, 0
  br i1 %.not.i.i.i.i.i.i, label %19, label %16

16:                                               ; preds = %13
  %17 = load i32, ptr %14, align 4
  %18 = add nsw i32 %17, 1
  store i32 %18, ptr %14, align 4
  br label %_ZN5osgeo4proj4util15BaseObjectNNPtrC2INS0_3crs11GeodeticCRSEEERKN7dropbox6oxygen2nnISt10shared_ptrIT_EEE.exit

19:                                               ; preds = %13
  %20 = atomicrmw volatile add ptr %14, i32 1 acq_rel, align 4
  br label %_ZN5osgeo4proj4util15BaseObjectNNPtrC2INS0_3crs11GeodeticCRSEEERKN7dropbox6oxygen2nnISt10shared_ptrIT_EEE.exit

_ZN5osgeo4proj4util15BaseObjectNNPtrC2INS0_3crs11GeodeticCRSEEERKN7dropbox6oxygen2nnISt10shared_ptrIT_EEE.exit: ; preds = %19, %16, %2
  invoke void @_ZN5osgeo4proj4util10BaseObject10assignSelfERKNS1_15BaseObjectNNPtrE(ptr noundef nonnull align 8 dereferenceable(16) %9, ptr noundef nonnull align 8 dereferenceable(16) %4)
          to label %21 unwind label %32

21:                                               ; preds = %_ZN5osgeo4proj4util15BaseObjectNNPtrC2INS0_3crs11GeodeticCRSEEERKN7dropbox6oxygen2nnISt10shared_ptrIT_EEE.exit
  call void @_ZN5osgeo4proj4util15BaseObjectNNPtrD1Ev(ptr noundef nonnull align 8 dereferenceable(16) %4) #37
  %22 = load ptr, ptr %3, align 8
  %23 = icmp eq ptr %22, null
  br i1 %23, label %_ZN7dropbox6oxygen2nnISt10shared_ptrIN5osgeo4proj3crs11GeodeticCRSEEED2Ev.exit, label %24

24:                                               ; preds = %21
  %25 = load ptr, ptr %22, align 8
  %26 = getelementptr i8, ptr %25, i64 -24
  %27 = load i64, ptr %26, align 8
  %28 = getelementptr inbounds i8, ptr %22, i64 %27
  br label %_ZN7dropbox6oxygen2nnISt10shared_ptrIN5osgeo4proj3crs11GeodeticCRSEEED2Ev.exit

_ZN7dropbox6oxygen2nnISt10shared_ptrIN5osgeo4proj3crs11GeodeticCRSEEED2Ev.exit: ; preds = %21, %24
  %29 = phi ptr [ %28, %24 ], [ null, %21 ]
  store ptr %29, ptr %0, align 8
  %30 = getelementptr inbounds i8, ptr %0, i64 8
  %31 = load ptr, ptr %11, align 8
  store ptr %31, ptr %30, align 8
  ret void

32:                                               ; preds = %_ZN5osgeo4proj4util15BaseObjectNNPtrC2INS0_3crs11GeodeticCRSEEERKN7dropbox6oxygen2nnISt10shared_ptrIT_EEE.exit
  %33 = landingpad { ptr, i32 }
          cleanup
  call void @_ZN5osgeo4proj4util15BaseObjectNNPtrD1Ev(ptr noundef nonnull align 8 dereferenceable(16) %4) #37
  call void @_ZN7dropbox6oxygen2nnISt10shared_ptrIN5osgeo4proj3crs11GeodeticCRSEEED2Ev(ptr noundef nonnull align 8 dereferenceable(16) %3) #37
  resume { ptr, i32 } %33
}